target datalayout = "e-m:e-p270:32:32-p271:32:32-p272:64:64-i64:64-i128:128-f80:128-n8:16:32:64-S128"
target triple = "x86_64-pc-linux-gnu"

%"class.std::_Function_base" = type { %"union.std::_Any_data", ptr }
%"union.std::_Any_data" = type { %"union.std::_Nocopy_types" }
%"union.std::_Nocopy_types" = type { { i64, i64 } }
%"class.llvm::BitcodeReaderValueList" = type { %"class.std::vector.166", i32, %"class.std::function.171" }
%"class.std::vector.166" = type { %"struct.std::_Vector_base.167" }
%"struct.std::_Vector_base.167" = type { %"struct.std::_Vector_base<std::pair<llvm::WeakTrackingVH, unsigned int>, std::allocator<std::pair<llvm::WeakTrackingVH, unsigned int>>>::_Vector_impl" }
%"struct.std::_Vector_base<std::pair<llvm::WeakTrackingVH, unsigned int>, std::allocator<std::pair<llvm::WeakTrackingVH, unsigned int>>>::_Vector_impl" = type { %"struct.std::_Vector_base<std::pair<llvm::WeakTrackingVH, unsigned int>, std::allocator<std::pair<llvm::WeakTrackingVH, unsigned int>>>::_Vector_impl_data" }
%"struct.std::_Vector_base<std::pair<llvm::WeakTrackingVH, unsigned int>, std::allocator<std::pair<llvm::WeakTrackingVH, unsigned int>>>::_Vector_impl_data" = type { ptr, ptr, ptr }
%"class.std::function.171" = type { %"class.std::_Function_base", ptr }
%"struct.std::pair.248" = type <{ %"class.llvm::WeakTrackingVH", i32, [4 x i8] }>
%"class.llvm::WeakTrackingVH" = type { %"class.llvm::ValueHandleBase" }
%"class.llvm::ValueHandleBase" = type { %"class.llvm::PointerIntPair.250", ptr, ptr }
%"class.llvm::PointerIntPair.250" = type { %"struct.llvm::detail::PunnedPointer.251" }
%"struct.llvm::detail::PunnedPointer.251" = type { [8 x i8] }
%"class.llvm::Value" = type { i8, i8, i16, i32, ptr, ptr }

; Function Attrs: mustprogress nounwind uwtable
define linkonce_odr hidden noundef ptr @_ZNK4llvm15ValueHandleBase9getValPtrEv(ptr noundef nonnull align 8 dereferenceable(24) %0) #1 comdat align 2 {
  %2 = alloca ptr, align 8
  store ptr %0, ptr %2, align 8
  %3 = load ptr, ptr %2, align 8
  %4 = getelementptr inbounds nuw %"class.llvm::ValueHandleBase", ptr %3, i32 0, i32 2
  %5 = load ptr, ptr %4, align 8
  ret ptr %5
}

; Function Attrs: mustprogress nounwind uwtable
define linkonce_odr hidden noundef ptr @_ZNK4llvm14WeakTrackingVHcvPNS_5ValueEEv(ptr noundef nonnull align 8 dereferenceable(24) %0) #1 comdat align 2 {
  %2 = alloca ptr, align 8
  store ptr %0, ptr %2, align 8
  %3 = load ptr, ptr %2, align 8
  %4 = call noundef ptr @_ZNK4llvm15ValueHandleBase9getValPtrEv(ptr noundef nonnull align 8 dereferenceable(24) %3)
  ret ptr %4
}

; Function Attrs: mustprogress nounwind uwtable
define linkonce_odr hidden noundef nonnull align 8 dereferenceable(28) ptr @_ZNKSt6vectorISt4pairIN4llvm14WeakTrackingVHEjESaIS3_EEixEm(ptr noundef nonnull align 8 dereferenceable(24) %0, i64 noundef %1) #1 comdat align 2 {
  %3 = alloca ptr, align 8
  %4 = alloca i64, align 8
  store ptr %0, ptr %3, align 8
  store i64 %1, ptr %4, align 8
  %5 = load ptr, ptr %3, align 8
  %6 = getelementptr inbounds nuw %"struct.std::_Vector_base.167", ptr %5, i32 0, i32 0
  %7 = getelementptr inbounds nuw %"struct.std::_Vector_base<std::pair<llvm::WeakTrackingVH, unsigned int>, std::allocator<std::pair<llvm::WeakTrackingVH, unsigned int>>>::_Vector_impl_data", ptr %6, i32 0, i32 0
  %8 = load ptr, ptr %7, align 8
  %9 = load i64, ptr %4, align 8
  %10 = getelementptr inbounds %"struct.std::pair.248", ptr %8, i64 %9
  ret ptr %10
}

; Function Attrs: mustprogress nounwind uwtable
define linkonce_odr hidden noundef i64 @_ZNKSt6vectorISt4pairIN4llvm14WeakTrackingVHEjESaIS3_EE4sizeEv(ptr noundef nonnull align 8 dereferenceable(24) %0) #1 comdat align 2 {
  %2 = alloca ptr, align 8
  store ptr %0, ptr %2, align 8
  %3 = load ptr, ptr %2, align 8
  %4 = getelementptr inbounds nuw %"struct.std::_Vector_base.167", ptr %3, i32 0, i32 0
  %5 = getelementptr inbounds nuw %"struct.std::_Vector_base<std::pair<llvm::WeakTrackingVH, unsigned int>, std::allocator<std::pair<llvm::WeakTrackingVH, unsigned int>>>::_Vector_impl_data", ptr %4, i32 0, i32 1
  %6 = load ptr, ptr %5, align 8
  %7 = getelementptr inbounds nuw %"struct.std::_Vector_base.167", ptr %3, i32 0, i32 0
  %8 = getelementptr inbounds nuw %"struct.std::_Vector_base<std::pair<llvm::WeakTrackingVH, unsigned int>, std::allocator<std::pair<llvm::WeakTrackingVH, unsigned int>>>::_Vector_impl_data", ptr %7, i32 0, i32 0
  %9 = load ptr, ptr %8, align 8
  %10 = ptrtoint ptr %6 to i64
  %11 = ptrtoint ptr %9 to i64
  %12 = sub i64 %10, %11
  %13 = sdiv exact i64 %12, 32
  ret i64 %13
}

; Function Attrs: mustprogress nounwind uwtable
define linkonce_odr hidden noundef ptr @_ZNK4llvm5Value7getTypeEv(ptr noundef nonnull align 8 dereferenceable(24) %0) #1 comdat align 2 {
  %2 = alloca ptr, align 8
  store ptr %0, ptr %2, align 8
  %3 = load ptr, ptr %2, align 8
  %4 = getelementptr inbounds nuw %"class.llvm::Value", ptr %3, i32 0, i32 4
  %5 = load ptr, ptr %4, align 8
  ret ptr %5
}

; Function Attrs: mustprogress nounwind uwtable
define linkonce_odr hidden noundef ptr @_ZNK4llvm22BitcodeReaderValueListixEj(ptr noundef nonnull align 8 dereferenceable(64) %0, i32 noundef %1) #1 comdat align 2 {
  %3 = alloca ptr, align 8
  %4 = alloca i32, align 4
  store ptr %0, ptr %3, align 8
  store i32 %1, ptr %4, align 4
  %5 = load ptr, ptr %3, align 8
  %6 = getelementptr inbounds nuw %"class.llvm::BitcodeReaderValueList", ptr %5, i32 0, i32 0
  %7 = load i32, ptr %4, align 4
  %8 = zext i32 %7 to i64
  %9 = call noundef nonnull align 8 dereferenceable(28) ptr @_ZNKSt6vectorISt4pairIN4llvm14WeakTrackingVHEjESaIS3_EEixEm(ptr noundef nonnull align 8 dereferenceable(24) %6, i64 noundef %8) #2
  %10 = getelementptr inbounds nuw %"struct.std::pair.248", ptr %9, i32 0, i32 0
  %11 = call noundef ptr @_ZNK4llvm14WeakTrackingVHcvPNS_5ValueEEv(ptr noundef nonnull align 8 dereferenceable(24) %10)
  ret ptr %11
}

; Function Attrs: mustprogress nounwind uwtable
define linkonce_odr hidden noundef i32 @_ZNK4llvm22BitcodeReaderValueList4sizeEv(ptr noundef nonnull align 8 dereferenceable(64) %0) #1 comdat align 2 {
  %2 = alloca ptr, align 8
  store ptr %0, ptr %2, align 8
  %3 = load ptr, ptr %2, align 8
  %4 = getelementptr inbounds nuw %"class.llvm::BitcodeReaderValueList", ptr %3, i32 0, i32 0
  %5 = call noundef i64 @_ZNKSt6vectorISt4pairIN4llvm14WeakTrackingVHEjESaIS3_EE4sizeEv(ptr noundef nonnull align 8 dereferenceable(24) %4) #2
  %6 = trunc i64 %5 to i32
  ret i32 %6
}

; Function Attrs: mustprogress nounwind uwtable
define internal noundef ptr @_ZL14getValueFwdRefRN4llvm22BitcodeReaderValueListEjPNS_4TypeEj(ptr noundef nonnull align 8 dereferenceable(64) %0, i32 noundef %1, ptr noundef %2, i32 noundef %3) #1 {
  %5 = alloca ptr, align 8
  %6 = alloca ptr, align 8
  %7 = alloca i32, align 4
  %8 = alloca ptr, align 8
  %9 = alloca i32, align 4
  %10 = alloca ptr, align 8
  store ptr %0, ptr %6, align 8
  store i32 %1, ptr %7, align 4
  store ptr %2, ptr %8, align 8
  store i32 %3, ptr %9, align 4
  %11 = load ptr, ptr %6, align 8
  %12 = load i32, ptr %7, align 4
  %13 = load ptr, ptr %8, align 8
  %14 = load i32, ptr %9, align 4
  %15 = call noundef ptr @_ZN4llvm22BitcodeReaderValueList14getValueFwdRefEjPNS_4TypeEjPNS_10BasicBlockE(ptr noundef nonnull align 8 dereferenceable(64) %11, i32 noundef %12, ptr noundef %13, i32 noundef %14, ptr noundef null)
  store ptr %15, ptr %10, align 8
  %16 = load ptr, ptr %10, align 8
  %17 = icmp ne ptr %16, null
  br i1 %17, label %18, label %20

18:                                               ; preds = %4
  %19 = load ptr, ptr %10, align 8
  store ptr %19, ptr %5, align 8
  br label %41

20:                                               ; preds = %4
  %21 = load i32, ptr %7, align 4
  %22 = load ptr, ptr %6, align 8
  %23 = call noundef i32 @_ZNK4llvm22BitcodeReaderValueList4sizeEv(ptr noundef nonnull align 8 dereferenceable(64) %22)
  %24 = icmp ult i32 %21, %23
  br i1 %24, label %25, label %40

25:                                               ; preds = %20
  %26 = load ptr, ptr %6, align 8
  %27 = load i32, ptr %7, align 4
  %28 = call noundef ptr @_ZNK4llvm22BitcodeReaderValueListixEj(ptr noundef nonnull align 8 dereferenceable(64) %26, i32 noundef %27)
  %29 = icmp ne ptr %28, null
  br i1 %29, label %30, label %40

30:                                               ; preds = %25
  %31 = load ptr, ptr %6, align 8
  %32 = load i32, ptr %7, align 4
  %33 = call noundef ptr @_ZNK4llvm22BitcodeReaderValueListixEj(ptr noundef nonnull align 8 dereferenceable(64) %31, i32 noundef %32)
  %34 = call noundef ptr @_ZNK4llvm5Value7getTypeEv(ptr noundef nonnull align 8 dereferenceable(24) %33)
  %35 = load ptr, ptr %8, align 8
  %36 = icmp eq ptr %34, %35
  br i1 %36, label %37, label %40

37:                                               ; preds = %30
  %38 = load ptr, ptr %8, align 8
  %39 = call noundef ptr @_ZN4llvm10UndefValue3getEPNS_4TypeE(ptr noundef %38)
  store ptr %39, ptr %5, align 8
  br label %41

40:                                               ; preds = %30, %25, %20
  store ptr null, ptr %5, align 8
  br label %41

41:                                               ; preds = %40, %37, %18
  %42 = load ptr, ptr %5, align 8
  ret ptr %42
}