; Function Attrs: mustprogress nounwind uwtable
define internal fastcc noundef ptr @_ZL14getValueFwdRefRN4llvm22BitcodeReaderValueListEjPNS_4TypeEj(ptr noundef nonnull align 8 dereferenceable(64) %0, i32 noundef %1, ptr noundef %2, i32 noundef %3) unnamed_addr #0 {
  %5 = tail call noundef ptr @_ZN4llvm22BitcodeReaderValueList14getValueFwdRefEjPNS_4TypeEjPNS_10BasicBlockE(ptr noundef nonnull align 8 dereferenceable(64) %0, i32 noundef %1, ptr noundef %2, i32 noundef %3, ptr noundef null) #24
  %.not = icmp eq ptr %5, null
  br i1 %.not, label %6, label %26

6:                                                ; preds = %4
  %7 = getelementptr inbounds nuw i8, ptr %0, i64 8
  %8 = load ptr, ptr %7, align 8
  %9 = load ptr, ptr %0, align 8
  %10 = ptrtoint ptr %8 to i64
  %11 = ptrtoint ptr %9 to i64
  %12 = sub i64 %10, %11
  %13 = lshr exact i64 %12, 5
  %14 = trunc i64 %13 to i32
  %15 = icmp ult i32 %1, %14
  br i1 %15, label %16, label %26

16:                                               ; preds = %6
  %17 = zext i32 %1 to i64
  %18 = getelementptr inbounds %"struct.std::pair.248", ptr %9, i64 %17, i32 0, i32 0, i32 2
  %19 = load ptr, ptr %18, align 8
  %.not17 = icmp eq ptr %19, null
  br i1 %.not17, label %26, label %20

20:                                               ; preds = %16
  %21 = getelementptr inbounds nuw i8, ptr %19, i64 8
  %22 = load ptr, ptr %21, align 8
  %23 = icmp eq ptr %22, %2
  br i1 %23, label %24, label %26

24:                                               ; preds = %20
  %25 = tail call noundef ptr @_ZN4llvm10UndefValue3getEPNS_4TypeE(ptr noundef %2) #24
  br label %26

26:                                               ; preds = %6, %16, %20, %4, %24
  %.0 = phi ptr [ %25, %24 ], [ %5, %4 ], [ null, %20 ], [ null, %16 ], [ null, %6 ]
  ret ptr %.0
}